; Function Attrs: mustprogress uwtable
define void @_ZN7Imf_3_417GenericOutputFile31writeMagicNumberAndVersionFieldERNS_7OStreamEPKNS_6HeaderEi(ptr noundef nonnull readnone align 8 captures(none) dereferenceable(8) %0, ptr noundef nonnull align 8 dereferenceable(40) %1, ptr noundef %2, i32 noundef %3) local_unnamed_addr #8 align 2 personality ptr @__gxx_personality_v0 {
  %5 = alloca [4 x i8], align 1
  %6 = alloca [4 x i8], align 1
  call void @llvm.lifetime.start.p0(i64 4, ptr nonnull %6) #12
  store i8 118, ptr %6, align 1, !tbaa !6
  %7 = getelementptr inbounds nuw i8, ptr %6, i64 1
  store i8 47, ptr %7, align 1, !tbaa !6
  %8 = getelementptr inbounds nuw i8, ptr %6, i64 2
  store i8 49, ptr %8, align 1, !tbaa !6
  %9 = getelementptr inbounds nuw i8, ptr %6, i64 3
  store i8 1, ptr %9, align 1, !tbaa !6
  %10 = load ptr, ptr %1, align 8, !tbaa !3
  %11 = getelementptr inbounds nuw i8, ptr %10, i64 16
  %12 = load ptr, ptr %11, align 8
  call void %12(ptr noundef nonnull align 8 dereferenceable(40) %1, ptr noundef nonnull %6, i32 noundef 4)
  call void @llvm.lifetime.end.p0(i64 4, ptr nonnull %6) #12
  %13 = icmp eq i32 %3, 1
  br i1 %13, label %14, label %_ZSteqIcEN9__gnu_cxx11__enable_ifIXsr9__is_charIT_EE7__valueEbE6__typeERKNSt7__cxx1112basic_stringIS2_St11char_traitsIS2_ESaIS2_EEESC_.exit.thread21

14:                                               ; preds = %4
  %15 = call noundef nonnull align 8 dereferenceable(32) ptr @_ZNK7Imf_3_46Header4typeB5cxx11Ev(ptr noundef nonnull align 8 dereferenceable(49) %2)
  %16 = getelementptr inbounds nuw i8, ptr %15, i64 8
  %17 = load i64, ptr %16, align 8, !tbaa !8
  %18 = load i64, ptr getelementptr inbounds nuw (i8, ptr @_ZN7Imf_3_4L10TILEDIMAGEB5cxx11E, i64 8), align 8, !tbaa !8
  %19 = icmp eq i64 %17, %18
  br i1 %19, label %20, label %.lr.ph.preheader

20:                                               ; preds = %14
  %21 = icmp eq i64 %17, 0
  br i1 %21, label %_ZSteqIcEN9__gnu_cxx11__enable_ifIXsr9__is_charIT_EE7__valueEbE6__typeERKNSt7__cxx1112basic_stringIS2_St11char_traitsIS2_ESaIS2_EEESC_.exit.thread, label %_ZSteqIcEN9__gnu_cxx11__enable_ifIXsr9__is_charIT_EE7__valueEbE6__typeERKNSt7__cxx1112basic_stringIS2_St11char_traitsIS2_ESaIS2_EEESC_.exit

_ZSteqIcEN9__gnu_cxx11__enable_ifIXsr9__is_charIT_EE7__valueEbE6__typeERKNSt7__cxx1112basic_stringIS2_St11char_traitsIS2_ESaIS2_EEESC_.exit: ; preds = %20
  %22 = load ptr, ptr @_ZN7Imf_3_4L10TILEDIMAGEB5cxx11E, align 8, !tbaa !14
  %23 = load ptr, ptr %15, align 8, !tbaa !14
  %bcmp.i = call i32 @bcmp(ptr %23, ptr %22, i64 %17)
  %bcmp.i.fr = freeze i32 %bcmp.i
  %24 = icmp eq i32 %bcmp.i.fr, 0
  br i1 %24, label %_ZSteqIcEN9__gnu_cxx11__enable_ifIXsr9__is_charIT_EE7__valueEbE6__typeERKNSt7__cxx1112basic_stringIS2_St11char_traitsIS2_ESaIS2_EEESC_.exit.thread, label %.lr.ph.preheader

_ZSteqIcEN9__gnu_cxx11__enable_ifIXsr9__is_charIT_EE7__valueEbE6__typeERKNSt7__cxx1112basic_stringIS2_St11char_traitsIS2_ESaIS2_EEESC_.exit.thread: ; preds = %20, %_ZSteqIcEN9__gnu_cxx11__enable_ifIXsr9__is_charIT_EE7__valueEbE6__typeERKNSt7__cxx1112basic_stringIS2_St11char_traitsIS2_ESaIS2_EEESC_.exit
  br label %.lr.ph.preheader

_ZSteqIcEN9__gnu_cxx11__enable_ifIXsr9__is_charIT_EE7__valueEbE6__typeERKNSt7__cxx1112basic_stringIS2_St11char_traitsIS2_ESaIS2_EEESC_.exit.thread21: ; preds = %4
  %25 = icmp sgt i32 %3, 0
  br i1 %25, label %.lr.ph.preheader, label %._crit_edge

.lr.ph.preheader:                                 ; preds = %_ZSteqIcEN9__gnu_cxx11__enable_ifIXsr9__is_charIT_EE7__valueEbE6__typeERKNSt7__cxx1112basic_stringIS2_St11char_traitsIS2_ESaIS2_EEESC_.exit, %_ZSteqIcEN9__gnu_cxx11__enable_ifIXsr9__is_charIT_EE7__valueEbE6__typeERKNSt7__cxx1112basic_stringIS2_St11char_traitsIS2_ESaIS2_EEESC_.exit.thread, %14, %_ZSteqIcEN9__gnu_cxx11__enable_ifIXsr9__is_charIT_EE7__valueEbE6__typeERKNSt7__cxx1112basic_stringIS2_St11char_traitsIS2_ESaIS2_EEESC_.exit.thread21
  %.01727 = phi i32 [ 4098, %_ZSteqIcEN9__gnu_cxx11__enable_ifIXsr9__is_charIT_EE7__valueEbE6__typeERKNSt7__cxx1112basic_stringIS2_St11char_traitsIS2_ESaIS2_EEESC_.exit.thread21 ], [ 2, %14 ], [ 2, %_ZSteqIcEN9__gnu_cxx11__enable_ifIXsr9__is_charIT_EE7__valueEbE6__typeERKNSt7__cxx1112basic_stringIS2_St11char_traitsIS2_ESaIS2_EEESC_.exit ], [ 514, %_ZSteqIcEN9__gnu_cxx11__enable_ifIXsr9__is_charIT_EE7__valueEbE6__typeERKNSt7__cxx1112basic_stringIS2_St11char_traitsIS2_ESaIS2_EEESC_.exit.thread ]
  %wide.trip.count = zext nneg i32 %3 to i64
  br label %.lr.ph

._crit_edge:                                      ; preds = %43, %_ZSteqIcEN9__gnu_cxx11__enable_ifIXsr9__is_charIT_EE7__valueEbE6__typeERKNSt7__cxx1112basic_stringIS2_St11char_traitsIS2_ESaIS2_EEESC_.exit.thread21
  %.1.lcssa = phi i32 [ 4098, %_ZSteqIcEN9__gnu_cxx11__enable_ifIXsr9__is_charIT_EE7__valueEbE6__typeERKNSt7__cxx1112basic_stringIS2_St11char_traitsIS2_ESaIS2_EEESC_.exit.thread21 ], [ %.3, %43 ]
  call void @llvm.lifetime.start.p0(i64 4, ptr nonnull %5) #12
  %26 = trunc i32 %.1.lcssa to i8
  store i8 %26, ptr %5, align 1, !tbaa !6
  %27 = lshr i32 %.1.lcssa, 8
  %28 = trunc nuw nsw i32 %27 to i8
  %29 = getelementptr inbounds nuw i8, ptr %5, i64 1
  store i8 %28, ptr %29, align 1, !tbaa !6
  %30 = getelementptr inbounds nuw i8, ptr %5, i64 2
  store i8 0, ptr %30, align 1, !tbaa !6
  %31 = getelementptr inbounds nuw i8, ptr %5, i64 3
  store i8 0, ptr %31, align 1, !tbaa !6
  %32 = load ptr, ptr %1, align 8, !tbaa !3
  %33 = getelementptr inbounds nuw i8, ptr %32, i64 16
  %34 = load ptr, ptr %33, align 8
  call void %34(ptr noundef nonnull align 8 dereferenceable(40) %1, ptr noundef nonnull %5, i32 noundef 4)
  call void @llvm.lifetime.end.p0(i64 4, ptr nonnull %5) #12
  ret void

.lr.ph:                                           ; preds = %.lr.ph.preheader, %43
  %indvars.iv = phi i64 [ 0, %.lr.ph.preheader ], [ %indvars.iv.next, %43 ]
  %.123 = phi i32 [ %.01727, %.lr.ph.preheader ], [ %.3, %43 ]
  %35 = getelementptr inbounds nuw %"class.Imf_3_4::Header", ptr %2, i64 %indvars.iv
  %36 = call noundef zeroext i1 @_ZN7Imf_3_413usesLongNamesERKNS_6HeaderE(ptr noundef nonnull align 8 dereferenceable(49) %35)
  %37 = or i32 %.123, 1024
  %spec.select18 = select i1 %36, i32 %37, i32 %.123
  %38 = call noundef zeroext i1 @_ZNK7Imf_3_46Header7hasTypeEv(ptr noundef nonnull align 8 dereferenceable(49) %35)
  br i1 %38, label %39, label %43

39:                                               ; preds = %.lr.ph
  %40 = call noundef nonnull align 8 dereferenceable(32) ptr @_ZNK7Imf_3_46Header4typeB5cxx11Ev(ptr noundef nonnull align 8 dereferenceable(49) %35)
  %41 = call noundef zeroext i1 @_ZN7Imf_3_47isImageERKNSt7__cxx1112basic_stringIcSt11char_traitsIcESaIcEEE(ptr noundef nonnull align 8 dereferenceable(32) %40)
  %42 = or i32 %spec.select18, 2048
  %spec.select19 = select i1 %41, i32 %spec.select18, i32 %42
  br label %43

43:                                               ; preds = %39, %.lr.ph
  %.3 = phi i32 [ %spec.select18, %.lr.ph ], [ %spec.select19, %39 ]
  %indvars.iv.next = add nuw nsw i64 %indvars.iv, 1
  %exitcond.not = icmp eq i64 %indvars.iv.next, %wide.trip.count
  br i1 %exitcond.not, label %._crit_edge, label %.lr.ph, !llvm.loop !15
}